target datalayout = "e-m:e-p270:32:32-p271:32:32-p272:64:64-i64:64-i128:128-f80:128-n8:16:32:64-S128"
target triple = "x86_64-pc-linux-gnu"

%"class.llvm::StringRef" = type { ptr, i64 }
%"struct.llvm::ARM::FPUName" = type { %"class.llvm::StringRef", i32, i32, i32, i32 }

; Function Attrs: mustprogress nounwind uwtable
define dso_local noundef i32 @_ZN4llvm3ARM17getFPURestrictionENS0_7FPUKindE(i32 noundef %0) #0 {
  %2 = alloca i32, align 4
  %3 = alloca i32, align 4
  store i32 %0, ptr %3, align 4
  %4 = load i32, ptr %3, align 4
  %5 = icmp sge i32 %4, 24
  br i1 %5, label %6, label %7

6:                                                ; preds = %1
  store i32 0, ptr %2, align 4
  br label %13

7:                                                ; preds = %1
  %8 = load i32, ptr %3, align 4
  %9 = zext i32 %8 to i64
  %10 = getelementptr inbounds [24 x %"struct.llvm::ARM::FPUName"], ptr @_ZN4llvm3ARML8FPUNamesE, i64 0, i64 %9
  %11 = getelementptr inbounds nuw %"struct.llvm::ARM::FPUName", ptr %10, i32 0, i32 4
  %12 = load i32, ptr %11, align 4
  store i32 %12, ptr %2, align 4
  br label %13

13:                                               ; preds = %7, %6
  %14 = load i32, ptr %2, align 4
  ret i32 %14
}