; Function Attrs: mustprogress nofree norecurse nosync nounwind willreturn memory(none) uwtable
define dso_local noundef i32 @_ZN4llvm3ARM17getFPURestrictionENS0_7FPUKindE(i32 noundef %0) local_unnamed_addr #5 {
  %2 = icmp sgt i32 %0, 23
  br i1 %2, label %7, label %3

3:                                                ; preds = %1
  %4 = zext i32 %0 to i64
  %5 = getelementptr inbounds [24 x %"struct.llvm::ARM::FPUName"], ptr @_ZN4llvm3ARML8FPUNamesE, i64 0, i64 %4, i32 4
  %6 = load i32, ptr %5, align 4
  br label %7

7:                                                ; preds = %1, %3
  %.0 = phi i32 [ %6, %3 ], [ 0, %1 ]
  ret i32 %.0
}